	.file	"SetOnlyTheRequiredPartOfThePointerAccordingToTheSize.cpp"
	.intel_syntax noprefix
	.text
.Ltext0:
	.local	_ZStL8__ioinit
	.comm	_ZStL8__ioinit,1,1
	.globl	main
	.type	main, @function
main:
.LFB1819:
	.file 1 "SetOnlyTheRequiredPartOfThePointerAccordingToTheSize.cpp"
	.loc 1 16 1
	.cfi_startproc
	push	rbp
	.cfi_def_cfa_offset 16
	.cfi_offset 6, -16
	mov	rbp, rsp
	.cfi_def_cfa_register 6
	sub	rsp, 32
	.loc 1 16 1
	mov	rax, QWORD PTR fs:40
	mov	QWORD PTR -8[rbp], rax
	xor	eax, eax
	.loc 1 17 7
	mov	QWORD PTR -16[rbp], 0
	.loc 1 19 19
	lea	rax, -17[rbp]
	mov	esi, 60
	mov	rdi, rax
	call	_ZN4TestILi8EEC1El
	.loc 1 21 68
#APP
# 21 "SetOnlyTheRequiredPartOfThePointerAccordingToTheSize.cpp" 1
	MOV rax, RAX
# 0 "" 2
#NO_APP
	mov	QWORD PTR -16[rbp], rax
	.loc 1 23 10
	mov	rax, QWORD PTR -16[rbp]
	mov	rsi, rax
	lea	rdi, _ZSt4cout[rip]
	call	_ZNSolsEl@PLT
	mov	rdx, rax
	.loc 1 23 15
	mov	rax, QWORD PTR _ZSt4endlIcSt11char_traitsIcEERSt13basic_ostreamIT_T0_ES6_@GOTPCREL[rip]
	mov	rsi, rax
	mov	rdi, rdx
	call	_ZNSolsEPFRSoS_E@PLT
	.loc 1 25 13
	mov	eax, 0
	.loc 1 26 1
	mov	rcx, QWORD PTR -8[rbp]
	xor	rcx, QWORD PTR fs:40
	je	.L3
	call	__stack_chk_fail@PLT
.L3:
	leave
	.cfi_def_cfa 7, 8
	ret
	.cfi_endproc
.LFE1819:
	.size	main, .-main
	.section	.text._ZN4TestILi8EEC2El,"axG",@progbits,_ZN4TestILi8EEC5El,comdat
	.align 2
	.weak	_ZN4TestILi8EEC2El
	.type	_ZN4TestILi8EEC2El, @function
_ZN4TestILi8EEC2El:
.LFB2070:
	.loc 1 11 2
	.cfi_startproc
	push	rbp
	.cfi_def_cfa_offset 16
	.cfi_offset 6, -16
	mov	rbp, rsp
	.cfi_def_cfa_register 6
	mov	QWORD PTR -8[rbp], rdi
	mov	QWORD PTR -16[rbp], rsi
.LBB2:
	.loc 1 11 92
	mov	rax, QWORD PTR -16[rbp]
#APP
# 11 "SetOnlyTheRequiredPartOfThePointerAccordingToTheSize.cpp" 1
	MOV RAX, rax
# 0 "" 2
#NO_APP
.LBE2:
	.loc 1 11 94
	nop
	pop	rbp
	.cfi_def_cfa 7, 8
	ret
	.cfi_endproc
.LFE2070:
	.size	_ZN4TestILi8EEC2El, .-_ZN4TestILi8EEC2El
	.weak	_ZN4TestILi8EEC1El
	.set	_ZN4TestILi8EEC1El,_ZN4TestILi8EEC2El
	.text
	.type	_Z41__static_initialization_and_destruction_0ii, @function
_Z41__static_initialization_and_destruction_0ii:
.LFB2329:
	.loc 1 26 1
	.cfi_startproc
	push	rbp
	.cfi_def_cfa_offset 16
	.cfi_offset 6, -16
	mov	rbp, rsp
	.cfi_def_cfa_register 6
	sub	rsp, 16
	mov	DWORD PTR -4[rbp], edi
	mov	DWORD PTR -8[rbp], esi
	.loc 1 26 1
	cmp	DWORD PTR -4[rbp], 1
	jne	.L7
	.loc 1 26 1 is_stmt 0 discriminator 1
	cmp	DWORD PTR -8[rbp], 65535
	jne	.L7
	.file 2 "/usr/include/c++/8/iostream"
	.loc 2 74 25 is_stmt 1
	lea	rdi, _ZStL8__ioinit[rip]
	call	_ZNSt8ios_base4InitC1Ev@PLT
	lea	rdx, __dso_handle[rip]
	lea	rsi, _ZStL8__ioinit[rip]
	mov	rax, QWORD PTR _ZNSt8ios_base4InitD1Ev@GOTPCREL[rip]
	mov	rdi, rax
	call	__cxa_atexit@PLT
.L7:
	.loc 1 26 1
	nop
	leave
	.cfi_def_cfa 7, 8
	ret
	.cfi_endproc
.LFE2329:
	.size	_Z41__static_initialization_and_destruction_0ii, .-_Z41__static_initialization_and_destruction_0ii
	.type	_GLOBAL__sub_I_main, @function
_GLOBAL__sub_I_main:
.LFB2330:
	.loc 1 26 1
	.cfi_startproc
	push	rbp
	.cfi_def_cfa_offset 16
	.cfi_offset 6, -16
	mov	rbp, rsp
	.cfi_def_cfa_register 6
	.loc 1 26 1
	mov	esi, 65535
	mov	edi, 1
	call	_Z41__static_initialization_and_destruction_0ii
	pop	rbp
	.cfi_def_cfa 7, 8
	ret
	.cfi_endproc
.LFE2330:
	.size	_GLOBAL__sub_I_main, .-_GLOBAL__sub_I_main
	.section	.init_array,"aw"
	.align 8
	.quad	_GLOBAL__sub_I_main
	.text
.Letext0:
	.file 3 "/usr/include/c++/8/cwchar"
	.file 4 "/usr/include/c++/8/new"
	.file 5 "/usr/include/c++/8/bits/exception_ptr.h"
	.file 6 "/usr/include/c++/8/type_traits"
	.file 7 "/usr/include/x86_64-linux-gnu/c++/8/bits/c++config.h"
	.file 8 "/usr/include/c++/8/bits/stl_pair.h"
	.file 9 "/usr/include/c++/8/debug/debug.h"
	.file 10 "/usr/include/c++/8/bits/char_traits.h"
	.file 11 "/usr/include/c++/8/cstdint"
	.file 12 "/usr/include/c++/8/clocale"
	.file 13 "/usr/include/c++/8/limits"
	.file 14 "/usr/include/c++/8/string_view"
	.file 15 "/usr/include/c++/8/bits/basic_string.h"
	.file 16 "/usr/include/c++/8/cstdlib"
	.file 17 "/usr/include/c++/8/cstdio"
	.file 18 "/usr/include/c++/8/system_error"
	.file 19 "/usr/include/c++/8/bits/ios_base.h"
	.file 20 "/usr/include/c++/8/cwctype"
	.file 21 "/usr/include/c++/8/istream"
	.file 22 "/usr/include/c++/8/iosfwd"
	.file 23 "/usr/include/c++/8/ostream"
	.file 24 "/usr/include/c++/8/bits/predefined_ops.h"
	.file 25 "/usr/include/c++/8/ext/new_allocator.h"
	.file 26 "/usr/include/c++/8/ext/numeric_traits.h"
	.file 27 "/usr/lib/gcc/x86_64-linux-gnu/8/include/stddef.h"
	.file 28 "<built-in>"
	.file 29 "/usr/include/x86_64-linux-gnu/bits/types/wint_t.h"
	.file 30 "/usr/include/x86_64-linux-gnu/bits/types/__mbstate_t.h"
	.file 31 "/usr/include/x86_64-linux-gnu/bits/types/mbstate_t.h"
	.file 32 "/usr/include/x86_64-linux-gnu/bits/types/__FILE.h"
	.file 33 "/usr/include/x86_64-linux-gnu/bits/libio.h"
	.file 34 "/usr/include/x86_64-linux-gnu/bits/types/FILE.h"
	.file 35 "/usr/include/wchar.h"
	.file 36 "/usr/include/x86_64-linux-gnu/bits/types/struct_tm.h"
	.file 37 "/usr/include/x86_64-linux-gnu/bits/types.h"
	.file 38 "/usr/include/x86_64-linux-gnu/bits/stdint-intn.h"
	.file 39 "/usr/include/x86_64-linux-gnu/bits/stdint-uintn.h"
	.file 40 "/usr/include/stdint.h"
	.file 41 "/usr/include/locale.h"
	.file 42 "/usr/include/time.h"
	.file 43 "/usr/include/x86_64-linux-gnu/c++/8/bits/atomic_word.h"
	.file 44 "/usr/include/stdlib.h"
	.file 45 "/usr/include/x86_64-linux-gnu/bits/_G_config.h"
	.file 46 "/usr/include/stdio.h"
	.file 47 "/usr/include/x86_64-linux-gnu/bits/sys_errlist.h"
	.file 48 "/usr/include/errno.h"
	.file 49 "/usr/include/x86_64-linux-gnu/bits/wctype-wchar.h"
	.file 50 "/usr/include/wctype.h"
	.section	.note.GNU-stack,"",@progbits
